(dp1
S'grade'
p2
(lp3
S'12'
p4
asS'activities'
p5
(lp6
S'wynnewood'
p7
aS'swim'
p8
aS'swimming'
p9
asS'Blacklist'
p10
(lp11
sS'names'
p12
(lp13
S'Timothy Beuchel'
p14
aS'Timmy Beuchel'
p15
asS'addresses'
p16
(lp17
S'Elkridge'
p18
as.